target datalayout = "e-m:e-p270:32:32-p271:32:32-p272:64:64-i64:64-i128:128-f80:128-n8:16:32:64-S128"
target triple = "x86_64-pc-linux-gnu"

%struct.anon = type { [2 x double], [2 x double] }

; Function Attrs: nounwind uwtable
define internal void @SetInitialGuess2(ptr noundef %0, ptr noundef %1) #0 {
  %3 = alloca ptr, align 8
  %4 = alloca ptr, align 8
  %5 = alloca double, align 8
  %6 = alloca double, align 8
  %7 = alloca ptr, align 8
  %8 = alloca ptr, align 8
  %9 = alloca ptr, align 8
  store ptr %0, ptr %3, align 8, !tbaa !4
  store ptr %1, ptr %4, align 8, !tbaa !9
  call void @llvm.lifetime.start.p0(i64 8, ptr %5) #6
  call void @llvm.lifetime.start.p0(i64 8, ptr %6) #6
  call void @llvm.lifetime.start.p0(i64 8, ptr %7) #6
  call void @llvm.lifetime.start.p0(i64 8, ptr %8) #6
  call void @llvm.lifetime.start.p0(i64 8, ptr %9) #6
  %10 = load ptr, ptr %3, align 8, !tbaa !4
  %11 = call ptr @N_VGetArrayPointer(ptr noundef %10)
  store ptr %11, ptr %7, align 8, !tbaa !33
  %12 = load ptr, ptr %4, align 8, !tbaa !9
  %13 = getelementptr inbounds nuw %struct.anon, ptr %12, i32 0, i32 0
  %14 = getelementptr inbounds [2 x double], ptr %13, i64 0, i64 0
  store ptr %14, ptr %8, align 8, !tbaa !33
  %15 = load ptr, ptr %4, align 8, !tbaa !9
  %16 = getelementptr inbounds nuw %struct.anon, ptr %15, i32 0, i32 1
  %17 = getelementptr inbounds [2 x double], ptr %16, i64 0, i64 0
  store ptr %17, ptr %9, align 8, !tbaa !33
  %18 = load ptr, ptr %8, align 8, !tbaa !33
  %19 = getelementptr inbounds double, ptr %18, i64 0
  %20 = load double, ptr %19, align 8, !tbaa !16
  %21 = load ptr, ptr %9, align 8, !tbaa !33
  %22 = getelementptr inbounds double, ptr %21, i64 0
  %23 = load double, ptr %22, align 8, !tbaa !16
  %24 = fadd double %20, %23
  %25 = fmul double 5.000000e-01, %24
  store double %25, ptr %5, align 8, !tbaa !16
  %26 = load ptr, ptr %8, align 8, !tbaa !33
  %27 = getelementptr inbounds double, ptr %26, i64 1
  %28 = load double, ptr %27, align 8, !tbaa !16
  %29 = load ptr, ptr %9, align 8, !tbaa !33
  %30 = getelementptr inbounds double, ptr %29, i64 1
  %31 = load double, ptr %30, align 8, !tbaa !16
  %32 = fadd double %28, %31
  %33 = fmul double 5.000000e-01, %32
  store double %33, ptr %6, align 8, !tbaa !16
  %34 = load double, ptr %5, align 8, !tbaa !16
  %35 = load ptr, ptr %7, align 8, !tbaa !33
  %36 = getelementptr inbounds double, ptr %35, i64 0
  store double %34, ptr %36, align 8, !tbaa !16
  %37 = load double, ptr %6, align 8, !tbaa !16
  %38 = load ptr, ptr %7, align 8, !tbaa !33
  %39 = getelementptr inbounds double, ptr %38, i64 1
  store double %37, ptr %39, align 8, !tbaa !16
  %40 = load double, ptr %5, align 8, !tbaa !16
  %41 = load ptr, ptr %8, align 8, !tbaa !33
  %42 = getelementptr inbounds double, ptr %41, i64 0
  %43 = load double, ptr %42, align 8, !tbaa !16
  %44 = fsub double %40, %43
  %45 = load ptr, ptr %7, align 8, !tbaa !33
  %46 = getelementptr inbounds double, ptr %45, i64 2
  store double %44, ptr %46, align 8, !tbaa !16
  %47 = load double, ptr %5, align 8, !tbaa !16
  %48 = load ptr, ptr %9, align 8, !tbaa !33
  %49 = getelementptr inbounds double, ptr %48, i64 0
  %50 = load double, ptr %49, align 8, !tbaa !16
  %51 = fsub double %47, %50
  %52 = load ptr, ptr %7, align 8, !tbaa !33
  %53 = getelementptr inbounds double, ptr %52, i64 3
  store double %51, ptr %53, align 8, !tbaa !16
  %54 = load double, ptr %6, align 8, !tbaa !16
  %55 = load ptr, ptr %8, align 8, !tbaa !33
  %56 = getelementptr inbounds double, ptr %55, i64 1
  %57 = load double, ptr %56, align 8, !tbaa !16
  %58 = fsub double %54, %57
  %59 = load ptr, ptr %7, align 8, !tbaa !33
  %60 = getelementptr inbounds double, ptr %59, i64 4
  store double %58, ptr %60, align 8, !tbaa !16
  %61 = load double, ptr %6, align 8, !tbaa !16
  %62 = load ptr, ptr %9, align 8, !tbaa !33
  %63 = getelementptr inbounds double, ptr %62, i64 1
  %64 = load double, ptr %63, align 8, !tbaa !16
  %65 = fsub double %61, %64
  %66 = load ptr, ptr %7, align 8, !tbaa !33
  %67 = getelementptr inbounds double, ptr %66, i64 5
  store double %65, ptr %67, align 8, !tbaa !16
  call void @llvm.lifetime.end.p0(i64 8, ptr %9) #6
  call void @llvm.lifetime.end.p0(i64 8, ptr %8) #6
  call void @llvm.lifetime.end.p0(i64 8, ptr %7) #6
  call void @llvm.lifetime.end.p0(i64 8, ptr %6) #6
  call void @llvm.lifetime.end.p0(i64 8, ptr %5) #6
  ret void
}