; Function Attrs: nounwind uwtable
define internal fastcc void @SetInitialGuess2(ptr noundef %0, ptr noundef readonly captures(none) %1) unnamed_addr #0 {
  %3 = tail call ptr @N_VGetArrayPointer(ptr noundef %0) #11
  %4 = getelementptr inbounds nuw i8, ptr %1, i64 16
  %5 = load double, ptr %1, align 8, !tbaa !9
  %6 = load double, ptr %4, align 8, !tbaa !9
  %7 = fadd double %5, %6
  %8 = fmul double %7, 5.000000e-01
  %9 = getelementptr inbounds nuw i8, ptr %1, i64 8
  %10 = load double, ptr %9, align 8, !tbaa !9
  %11 = getelementptr inbounds nuw i8, ptr %1, i64 24
  %12 = load double, ptr %11, align 8, !tbaa !9
  %13 = fadd double %10, %12
  %14 = fmul double %13, 5.000000e-01
  store double %8, ptr %3, align 8, !tbaa !9
  %15 = getelementptr inbounds nuw i8, ptr %3, i64 8
  store double %14, ptr %15, align 8, !tbaa !9
  %16 = load double, ptr %1, align 8, !tbaa !9
  %17 = fsub double %8, %16
  %18 = getelementptr inbounds nuw i8, ptr %3, i64 16
  store double %17, ptr %18, align 8, !tbaa !9
  %19 = load double, ptr %4, align 8, !tbaa !9
  %20 = fsub double %8, %19
  %21 = getelementptr inbounds nuw i8, ptr %3, i64 24
  store double %20, ptr %21, align 8, !tbaa !9
  %22 = load double, ptr %9, align 8, !tbaa !9
  %23 = fsub double %14, %22
  %24 = getelementptr inbounds nuw i8, ptr %3, i64 32
  store double %23, ptr %24, align 8, !tbaa !9
  %25 = load double, ptr %11, align 8, !tbaa !9
  %26 = fsub double %14, %25
  %27 = getelementptr inbounds nuw i8, ptr %3, i64 40
  store double %26, ptr %27, align 8, !tbaa !9
  ret void
}